Certificate:
    Data:
        Version: 3 (0x2)
        Serial Number: 4096 (0x1000)
        Signature Algorithm: sha1WithRSAEncryption
        Issuer: C=US, ST=Indiana, L=Bloomington, O=iu, OU=soic, CN=taqiu/emailAddress=taqiu@indiana.edu
        Validity
            Not Before: Apr  9 07:16:08 2014 GMT
            Not After : Apr  9 07:16:08 2015 GMT
        Subject: C=US, ST=Indiana, O=iu, OU=soic, CN=taqiu/emailAddress=taqiu@indiana.edu
        Subject Public Key Info:
            Public Key Algorithm: rsaEncryption
            RSA Public Key: (1024 bit)
                Modulus (1024 bit):
                    00:dc:6b:98:fd:d4:a0:9a:fb:4b:b8:74:33:01:b5:
                    31:48:92:5d:db:78:0a:e5:00:8b:e6:fa:cb:a0:26:
                    ce:ae:4f:c9:35:9b:29:8c:82:fd:a9:dd:00:09:be:
                    bd:8f:a1:b6:ce:06:12:0c:38:d7:9b:ea:68:2a:1b:
                    ba:ba:58:1a:99:73:fc:3b:94:41:d1:16:73:2b:f6:
                    f8:aa:10:dd:a7:10:ed:07:b7:e9:9d:98:ca:e5:64:
                    7f:49:8b:ad:92:e5:15:ce:a5:26:91:93:cd:d6:21:
                    7e:47:86:a5:53:47:01:8d:0f:2a:ac:9c:5c:ee:18:
                    32:d5:fd:14:34:bc:b9:ea:c7
                Exponent: 65537 (0x10001)
        X509v3 extensions:
            X509v3 Basic Constraints: 
                CA:FALSE
            Netscape Comment: 
                OpenSSL Generated Certificate
            X509v3 Subject Key Identifier: 
                94:50:B8:6F:07:70:40:96:E6:20:34:65:83:04:1E:0F:AA:1D:44:9B
            X509v3 Authority Key Identifier: 
                DirName:/C=US/ST=Indiana/L=Bloomington/O=iu/OU=soic/CN=taqiu/emailAddress=taqiu@indiana.edu
                serial:E6:BB:DF:76:96:77:F0:BB

    Signature Algorithm: sha1WithRSAEncryption
        af:1f:8d:d9:98:2d:95:8c:64:37:ec:ee:96:a1:d0:f6:13:2c:
        1e:2c:84:0e:97:37:c8:6a:f4:a1:ab:ce:cc:4c:a6:c4:6e:4d:
        a0:d0:0c:65:c4:eb:22:8a:8b:01:27:a9:ce:f4:87:f0:59:7b:
        45:1f:fb:71:ec:ee:a5:a2:68:66:99:28:9e:fe:23:6b:c3:ac:
        d7:7c:15:c4:19:36:c8:7c:64:ac:6c:d5:eb:f2:a6:b2:60:9a:
        df:40:05:c5:da:a8:8a:36:67:63:2c:cc:54:5a:9a:6f:16:ce:
        ef:c9:50:ff:a3:80:73:b7:dc:37:71:69:b1:ed:78:ad:88:d6:
        99:90
-----BEGIN CERTIFICATE-----
MIIDajCCAtOgAwIBAgICEAAwDQYJKoZIhvcNAQEFBQAwgYMxCzAJBgNVBAYTAlVT
MRAwDgYDVQQIEwdJbmRpYW5hMRQwEgYDVQQHEwtCbG9vbWluZ3RvbjELMAkGA1UE
ChMCaXUxDTALBgNVBAsTBHNvaWMxDjAMBgNVBAMTBXRhcWl1MSAwHgYJKoZIhvcN
AQkBFhF0YXFpdUBpbmRpYW5hLmVkdTAeFw0xNDA0MDkwNzE2MDhaFw0xNTA0MDkw
NzE2MDhaMG0xCzAJBgNVBAYTAlVTMRAwDgYDVQQIEwdJbmRpYW5hMQswCQYDVQQK
EwJpdTENMAsGA1UECxMEc29pYzEOMAwGA1UEAxMFdGFxaXUxIDAeBgkqhkiG9w0B
CQEWEXRhcWl1QGluZGlhbmEuZWR1MIGfMA0GCSqGSIb3DQEBAQUAA4GNADCBiQKB
gQDca5j91KCa+0u4dDMBtTFIkl3beArlAIvm+sugJs6uT8k1mymMgv2p3QAJvr2P
obbOBhIMONeb6mgqG7q6WBqZc/w7lEHRFnMr9viqEN2nEO0Ht+mdmMrlZH9Ji62S
5RXOpSaRk83WIX5HhqVTRwGNDyqsnFzuGDLV/RQ0vLnqxwIDAQABo4IBADCB/TAJ
BgNVHRMEAjAAMCwGCWCGSAGG+EIBDQQfFh1PcGVuU1NMIEdlbmVyYXRlZCBDZXJ0
aWZpY2F0ZTAdBgNVHQ4EFgQUlFC4bwdwQJbmIDRlgwQeD6odRJswgaIGA1UdIwSB
mjCBl6GBiaSBhjCBgzELMAkGA1UEBhMCVVMxEDAOBgNVBAgTB0luZGlhbmExFDAS
BgNVBAcTC0Jsb29taW5ndG9uMQswCQYDVQQKEwJpdTENMAsGA1UECxMEc29pYzEO
MAwGA1UEAxMFdGFxaXUxIDAeBgkqhkiG9w0BCQEWEXRhcWl1QGluZGlhbmEuZWR1
ggkA5rvfdpZ38LswDQYJKoZIhvcNAQEFBQADgYEArx+N2ZgtlYxkN+zulqHQ9hMs
HiyEDpc3yGr0oavOzEymxG5NoNAMZcTrIoqLASepzvSH8Fl7RR/7cezupaJoZpko
nv4ja8Os13wVxBk2yHxkrGzV6/KmsmCa30AFxdqoijZnYyzMVFqabxbO78lQ/6OA
c7fcN3Fpse14rYjWmZA=
-----END CERTIFICATE-----
